; Function Attrs: mustprogress nounwind willreturn uwtable
define internal fastcc void @conn_free(ptr noundef nonnull captures(none) %0) unnamed_addr #13 {
  %2 = load ptr, ptr @conns, align 8, !tbaa !137
  %3 = getelementptr inbounds nuw i8, ptr %0, i64 8
  %4 = load i32, ptr %3, align 8, !tbaa !52
  %5 = sext i32 %4 to i64
  %6 = getelementptr inbounds ptr, ptr %2, i64 %5
  store ptr null, ptr %6, align 8, !tbaa !139
  %7 = getelementptr inbounds nuw i8, ptr %0, i64 184
  %8 = load ptr, ptr %7, align 8, !tbaa !41
  %.not = icmp eq ptr %8, null
  br i1 %.not, label %10, label %9

9:                                                ; preds = %1
  tail call void @free(ptr noundef nonnull %8) #34
  br label %10

10:                                               ; preds = %9, %1
  tail call void @free(ptr noundef nonnull %0) #34
  ret void
}